target datalayout = "e-m:e-p270:32:32-p271:32:32-p272:64:64-i64:64-i128:128-f80:128-n8:16:32:64-S128"
target triple = "x86_64-pc-linux-gnu"

%struct.GCtab = type { %struct.GCRef, i8, i8, i8, i8, %struct.MRef, %struct.GCRef, %struct.GCRef, %struct.MRef, i32, i32, %struct.MRef }
%struct.GCRef = type { i64 }
%struct.MRef = type { i64 }
%struct.Node = type { %union.TValue, %union.TValue, %struct.MRef }
%union.TValue = type { i64 }

; Function Attrs: alwaysinline nounwind uwtable
define internal void @clearhpart(ptr noundef %0) #2 {
  %2 = alloca ptr, align 8
  %3 = alloca i32, align 4
  %4 = alloca i32, align 4
  %5 = alloca ptr, align 8
  %6 = alloca ptr, align 8
  store ptr %0, ptr %2, align 8, !tbaa !11
  call void @llvm.lifetime.start.p0(i64 4, ptr %3) #9
  call void @llvm.lifetime.start.p0(i64 4, ptr %4) #9
  %7 = load ptr, ptr %2, align 8, !tbaa !11
  %8 = getelementptr inbounds nuw %struct.GCtab, ptr %7, i32 0, i32 10
  %9 = load i32, ptr %8, align 4, !tbaa !13
  store i32 %9, ptr %4, align 4, !tbaa !9
  call void @llvm.lifetime.start.p0(i64 8, ptr %5) #9
  %10 = load ptr, ptr %2, align 8, !tbaa !11
  %11 = getelementptr inbounds nuw %struct.GCtab, ptr %10, i32 0, i32 8
  %12 = getelementptr inbounds nuw %struct.MRef, ptr %11, i32 0, i32 0
  %13 = load i64, ptr %12, align 8, !tbaa !29
  %14 = inttoptr i64 %13 to ptr
  store ptr %14, ptr %5, align 8, !tbaa !27
  store i32 0, ptr %3, align 4, !tbaa !9
  br label %15

15:                                               ; preds = %31, %1
  %16 = load i32, ptr %3, align 4, !tbaa !9
  %17 = load i32, ptr %4, align 4, !tbaa !9
  %18 = icmp ule i32 %16, %17
  br i1 %18, label %19, label %34

19:                                               ; preds = %15
  call void @llvm.lifetime.start.p0(i64 8, ptr %6) #9
  %20 = load ptr, ptr %5, align 8, !tbaa !27
  %21 = load i32, ptr %3, align 4, !tbaa !9
  %22 = zext i32 %21 to i64
  %23 = getelementptr inbounds nuw %struct.Node, ptr %20, i64 %22
  store ptr %23, ptr %6, align 8, !tbaa !27
  %24 = load ptr, ptr %6, align 8, !tbaa !27
  %25 = getelementptr inbounds nuw %struct.Node, ptr %24, i32 0, i32 2
  %26 = getelementptr inbounds nuw %struct.MRef, ptr %25, i32 0, i32 0
  store i64 0, ptr %26, align 8, !tbaa !35
  %27 = load ptr, ptr %6, align 8, !tbaa !27
  %28 = getelementptr inbounds nuw %struct.Node, ptr %27, i32 0, i32 1
  store i64 -1, ptr %28, align 8, !tbaa !32
  %29 = load ptr, ptr %6, align 8, !tbaa !27
  %30 = getelementptr inbounds nuw %struct.Node, ptr %29, i32 0, i32 0
  store i64 -1, ptr %30, align 8, !tbaa !32
  call void @llvm.lifetime.end.p0(i64 8, ptr %6) #9
  br label %31

31:                                               ; preds = %19
  %32 = load i32, ptr %3, align 4, !tbaa !9
  %33 = add i32 %32, 1
  store i32 %33, ptr %3, align 4, !tbaa !9
  br label %15, !llvm.loop !37

34:                                               ; preds = %15
  call void @llvm.lifetime.end.p0(i64 8, ptr %5) #9
  call void @llvm.lifetime.end.p0(i64 4, ptr %4) #9
  call void @llvm.lifetime.end.p0(i64 4, ptr %3) #9
  ret void
}

; Function Attrs: alwaysinline nounwind uwtable
define internal void @clearapart(ptr noundef %0) #2 {
  %2 = alloca ptr, align 8
  %3 = alloca i32, align 4
  %4 = alloca i32, align 4
  %5 = alloca ptr, align 8
  store ptr %0, ptr %2, align 8, !tbaa !11
  call void @llvm.lifetime.start.p0(i64 4, ptr %3) #9
  call void @llvm.lifetime.start.p0(i64 4, ptr %4) #9
  %6 = load ptr, ptr %2, align 8, !tbaa !11
  %7 = getelementptr inbounds nuw %struct.GCtab, ptr %6, i32 0, i32 9
  %8 = load i32, ptr %7, align 8, !tbaa !23
  store i32 %8, ptr %4, align 4, !tbaa !9
  call void @llvm.lifetime.start.p0(i64 8, ptr %5) #9
  %9 = load ptr, ptr %2, align 8, !tbaa !11
  %10 = getelementptr inbounds nuw %struct.GCtab, ptr %9, i32 0, i32 5
  %11 = getelementptr inbounds nuw %struct.MRef, ptr %10, i32 0, i32 0
  %12 = load i64, ptr %11, align 8, !tbaa !21
  %13 = inttoptr i64 %12 to ptr
  store ptr %13, ptr %5, align 8, !tbaa !31
  store i32 0, ptr %3, align 4, !tbaa !9
  br label %14

14:                                               ; preds = %23, %1
  %15 = load i32, ptr %3, align 4, !tbaa !9
  %16 = load i32, ptr %4, align 4, !tbaa !9
  %17 = icmp ult i32 %15, %16
  br i1 %17, label %18, label %26

18:                                               ; preds = %14
  %19 = load ptr, ptr %5, align 8, !tbaa !31
  %20 = load i32, ptr %3, align 4, !tbaa !9
  %21 = zext i32 %20 to i64
  %22 = getelementptr inbounds nuw %union.TValue, ptr %19, i64 %21
  store i64 -1, ptr %22, align 8, !tbaa !32
  br label %23

23:                                               ; preds = %18
  %24 = load i32, ptr %3, align 4, !tbaa !9
  %25 = add i32 %24, 1
  store i32 %25, ptr %3, align 4, !tbaa !9
  br label %14, !llvm.loop !33

26:                                               ; preds = %14
  call void @llvm.lifetime.end.p0(i64 8, ptr %5) #9
  call void @llvm.lifetime.end.p0(i64 4, ptr %4) #9
  call void @llvm.lifetime.end.p0(i64 4, ptr %3) #9
  ret void
}

; Function Attrs: nounwind uwtable
define hidden void @lj_tab_clear(ptr noundef %0) #0 {
  %2 = alloca ptr, align 8
  %3 = alloca ptr, align 8
  store ptr %0, ptr %2, align 8, !tbaa !11
  %4 = load ptr, ptr %2, align 8, !tbaa !11
  call void @clearapart(ptr noundef %4)
  %5 = load ptr, ptr %2, align 8, !tbaa !11
  %6 = getelementptr inbounds nuw %struct.GCtab, ptr %5, i32 0, i32 10
  %7 = load i32, ptr %6, align 4, !tbaa !13
  %8 = icmp ugt i32 %7, 0
  br i1 %8, label %9, label %27

9:                                                ; preds = %1
  call void @llvm.lifetime.start.p0(i64 8, ptr %3) #9
  %10 = load ptr, ptr %2, align 8, !tbaa !11
  %11 = getelementptr inbounds nuw %struct.GCtab, ptr %10, i32 0, i32 8
  %12 = getelementptr inbounds nuw %struct.MRef, ptr %11, i32 0, i32 0
  %13 = load i64, ptr %12, align 8, !tbaa !29
  %14 = inttoptr i64 %13 to ptr
  store ptr %14, ptr %3, align 8, !tbaa !27
  %15 = load ptr, ptr %3, align 8, !tbaa !27
  %16 = load ptr, ptr %2, align 8, !tbaa !11
  %17 = getelementptr inbounds nuw %struct.GCtab, ptr %16, i32 0, i32 10
  %18 = load i32, ptr %17, align 4, !tbaa !13
  %19 = add i32 %18, 1
  %20 = zext i32 %19 to i64
  %21 = getelementptr inbounds nuw %struct.Node, ptr %15, i64 %20
  %22 = ptrtoint ptr %21 to i64
  %23 = load ptr, ptr %2, align 8, !tbaa !11
  %24 = getelementptr inbounds nuw %struct.GCtab, ptr %23, i32 0, i32 11
  %25 = getelementptr inbounds nuw %struct.MRef, ptr %24, i32 0, i32 0
  store i64 %22, ptr %25, align 8, !tbaa !30
  %26 = load ptr, ptr %2, align 8, !tbaa !11
  call void @clearhpart(ptr noundef %26)
  call void @llvm.lifetime.end.p0(i64 8, ptr %3) #9
  br label %27

27:                                               ; preds = %9, %1
  ret void
}