; Function Attrs: nofree norecurse nosync nounwind memory(write, argmem: readwrite, inaccessiblemem: none) uwtable
define hidden void @lj_tab_clear(ptr noundef captures(none) %0) local_unnamed_addr #4 {
  %2 = getelementptr inbounds nuw i8, ptr %0, i64 48
  %3 = load i32, ptr %2, align 8, !tbaa !4
  %.not10 = icmp eq i32 %3, 0
  br i1 %.not10, label %clearapart.exit, label %.lr.ph.preheader

.lr.ph.preheader:                                 ; preds = %1
  %4 = getelementptr inbounds nuw i8, ptr %0, i64 16
  %5 = load i64, ptr %4, align 8, !tbaa !12
  %6 = inttoptr i64 %5 to ptr
  %7 = zext i32 %3 to i64
  %8 = shl nuw nsw i64 %7, 3
  tail call void @llvm.memset.p0.i64(ptr align 8 %6, i8 -1, i64 %8, i1 false), !tbaa !13
  br label %clearapart.exit

clearapart.exit:                                  ; preds = %.lr.ph.preheader, %1
  %9 = getelementptr inbounds nuw i8, ptr %0, i64 52
  %10 = load i32, ptr %9, align 4, !tbaa !14
  %.not = icmp eq i32 %10, 0
  br i1 %.not, label %clearhpart.exit, label %11

11:                                               ; preds = %clearapart.exit
  %12 = getelementptr inbounds nuw i8, ptr %0, i64 40
  %13 = load i64, ptr %12, align 8, !tbaa !15
  %14 = add i32 %10, 1
  %15 = zext i32 %14 to i64
  %.idx = mul nuw nsw i64 %15, 24
  %16 = add nuw i64 %13, %.idx
  %17 = getelementptr inbounds nuw i8, ptr %0, i64 56
  store i64 %16, ptr %17, align 8, !tbaa !28
  %18 = inttoptr i64 %13 to ptr
  %umax = tail call i32 @llvm.umax.i32(i32 %14, i32 1)
  %wide.trip.count = zext i32 %umax to i64
  br label %19

19:                                               ; preds = %11, %19
  %indvars.iv = phi i64 [ 0, %11 ], [ %indvars.iv.next, %19 ]
  %20 = getelementptr inbounds nuw %struct.Node, ptr %18, i64 %indvars.iv
  %21 = getelementptr inbounds nuw i8, ptr %20, i64 16
  store i64 0, ptr %21, align 8, !tbaa !16
  %indvars.iv.next = add nuw nsw i64 %indvars.iv, 1
  %exitcond = icmp eq i64 %indvars.iv.next, %wide.trip.count
  tail call void @llvm.memset.p0.i64(ptr noundef nonnull align 8 dereferenceable(16) %20, i8 -1, i64 16, i1 false)
  br i1 %exitcond, label %clearhpart.exit, label %19, !llvm.loop !18

clearhpart.exit:                                  ; preds = %19, %clearapart.exit
  ret void
}